; ModuleID = 'source-C-CXX/4/256.c'
source_filename = "source-C-CXX/4/256.c"
target datalayout = "e-m:e-p270:32:32-p271:32:32-p272:64:64-i64:64-f80:128-n8:16:32:64-S128"
target triple = "x86_64-pc-linux-gnu"

@.str = private unnamed_addr constant [4 x i8] c"%lf\00", align 1
@.str.1 = private unnamed_addr constant [3 x i8] c"%s\00", align 1
@.str.2 = private unnamed_addr constant [6 x i8] c"error\00", align 1
@.str.3 = private unnamed_addr constant [4 x i8] c"yes\00", align 1
@.str.4 = private unnamed_addr constant [3 x i8] c"no\00", align 1

; Function Attrs: nofree nounwind sspstrong uwtable
define dso_local i32 @main() local_unnamed_addr #0 {
  %1 = alloca double, align 8
  %2 = alloca [100 x i8], align 16
  %3 = alloca [100 x i8], align 16
  %4 = bitcast double* %1 to i8*
  call void @llvm.lifetime.start.p0i8(i64 8, i8* nonnull %4) #5
  %5 = getelementptr inbounds [100 x i8], [100 x i8]* %2, i64 0, i64 0
  call void @llvm.lifetime.start.p0i8(i64 100, i8* nonnull %5) #5
  %6 = getelementptr inbounds [100 x i8], [100 x i8]* %3, i64 0, i64 0
  call void @llvm.lifetime.start.p0i8(i64 100, i8* nonnull %6) #5
  %7 = call i32 (i8*, ...) @__isoc99_scanf(i8* getelementptr inbounds ([4 x i8], [4 x i8]* @.str, i64 0, i64 0), double* nonnull %1)
  %8 = call i32 (i8*, ...) @__isoc99_scanf(i8* getelementptr inbounds ([3 x i8], [3 x i8]* @.str.1, i64 0, i64 0), i8* nonnull %5)
  %9 = call i32 (i8*, ...) @__isoc99_scanf(i8* getelementptr inbounds ([3 x i8], [3 x i8]* @.str.1, i64 0, i64 0), i8* nonnull %6)
  %10 = call i64 @strlen(i8* noundef nonnull %5) #6
  %11 = trunc i64 %10 to i32
  %12 = call i64 @strlen(i8* noundef nonnull %6) #6
  %13 = trunc i64 %12 to i32
  %14 = icmp sgt i32 %11, 0
  br i1 %14, label %15, label %30

15:                                               ; preds = %0
  %16 = shl i64 %10, 32
  %17 = ashr exact i64 %16, 32
  %18 = and i64 %10, 4294967295
  br label %19

19:                                               ; preds = %15, %23
  %20 = phi i64 [ 0, %15 ], [ %24, %23 ]
  %21 = getelementptr inbounds [100 x i8], [100 x i8]* %2, i64 0, i64 %20
  %22 = load i8, i8* %21, align 1, !tbaa !5
  switch i8 %22, label %92 [
    i8 65, label %23
    i8 71, label %23
    i8 67, label %23
    i8 84, label %23
  ]

23:                                               ; preds = %19, %19, %19, %19
  %24 = add nuw nsw i64 %20, 1
  %25 = icmp eq i64 %24, %18
  br i1 %25, label %26, label %19, !llvm.loop !8

26:                                               ; preds = %23
  %27 = icmp slt i64 %24, %17
  %28 = icmp ne i32 %11, %13
  %29 = select i1 %28, i1 true, i1 %27
  br i1 %29, label %92, label %32

30:                                               ; preds = %0
  %31 = icmp eq i32 %11, %13
  br i1 %31, label %73, label %92

32:                                               ; preds = %26
  br i1 %14, label %33, label %73

33:                                               ; preds = %32
  %34 = and i64 %10, 4294967295
  %35 = icmp ult i64 %34, 8
  br i1 %35, label %67, label %36

36:                                               ; preds = %33
  %37 = and i64 %10, 7
  %38 = sub nsw i64 %34, %37
  br label %39

39:                                               ; preds = %39, %36
  %40 = phi i64 [ 0, %36 ], [ %61, %39 ]
  %41 = phi <4 x i32> [ zeroinitializer, %36 ], [ %59, %39 ]
  %42 = phi <4 x i32> [ zeroinitializer, %36 ], [ %60, %39 ]
  %43 = getelementptr inbounds [100 x i8], [100 x i8]* %2, i64 0, i64 %40
  %44 = bitcast i8* %43 to <4 x i8>*
  %45 = load <4 x i8>, <4 x i8>* %44, align 8, !tbaa !5
  %46 = getelementptr inbounds i8, i8* %43, i64 4
  %47 = bitcast i8* %46 to <4 x i8>*
  %48 = load <4 x i8>, <4 x i8>* %47, align 4, !tbaa !5
  %49 = getelementptr inbounds [100 x i8], [100 x i8]* %3, i64 0, i64 %40
  %50 = bitcast i8* %49 to <4 x i8>*
  %51 = load <4 x i8>, <4 x i8>* %50, align 8, !tbaa !5
  %52 = getelementptr inbounds i8, i8* %49, i64 4
  %53 = bitcast i8* %52 to <4 x i8>*
  %54 = load <4 x i8>, <4 x i8>* %53, align 4, !tbaa !5
  %55 = icmp eq <4 x i8> %45, %51
  %56 = icmp eq <4 x i8> %48, %54
  %57 = zext <4 x i1> %55 to <4 x i32>
  %58 = zext <4 x i1> %56 to <4 x i32>
  %59 = add <4 x i32> %41, %57
  %60 = add <4 x i32> %42, %58
  %61 = add nuw i64 %40, 8
  %62 = icmp eq i64 %61, %38
  br i1 %62, label %63, label %39, !llvm.loop !10

63:                                               ; preds = %39
  %64 = add <4 x i32> %60, %59
  %65 = call i32 @llvm.vector.reduce.add.v4i32(<4 x i32> %64)
  %66 = icmp eq i64 %37, 0
  br i1 %66, label %70, label %67

67:                                               ; preds = %33, %63
  %68 = phi i64 [ 0, %33 ], [ %38, %63 ]
  %69 = phi i32 [ 0, %33 ], [ %65, %63 ]
  br label %80

70:                                               ; preds = %80, %63
  %71 = phi i32 [ %65, %63 ], [ %89, %80 ]
  %72 = sitofp i32 %71 to double
  br label %73

73:                                               ; preds = %30, %70, %32
  %74 = phi double [ 0.000000e+00, %32 ], [ %72, %70 ], [ 0.000000e+00, %30 ]
  %75 = sitofp i32 %11 to double
  %76 = fdiv double %74, %75
  %77 = load double, double* %1, align 8, !tbaa !12
  %78 = fcmp ogt double %76, %77
  %79 = select i1 %78, i8* getelementptr inbounds ([4 x i8], [4 x i8]* @.str.3, i64 0, i64 0), i8* getelementptr inbounds ([3 x i8], [3 x i8]* @.str.4, i64 0, i64 0)
  br label %92

80:                                               ; preds = %67, %80
  %81 = phi i64 [ %90, %80 ], [ %68, %67 ]
  %82 = phi i32 [ %89, %80 ], [ %69, %67 ]
  %83 = getelementptr inbounds [100 x i8], [100 x i8]* %2, i64 0, i64 %81
  %84 = load i8, i8* %83, align 1, !tbaa !5
  %85 = getelementptr inbounds [100 x i8], [100 x i8]* %3, i64 0, i64 %81
  %86 = load i8, i8* %85, align 1, !tbaa !5
  %87 = icmp eq i8 %84, %86
  %88 = zext i1 %87 to i32
  %89 = add nuw nsw i32 %82, %88
  %90 = add nuw nsw i64 %81, 1
  %91 = icmp eq i64 %90, %34
  br i1 %91, label %70, label %80, !llvm.loop !14

92:                                               ; preds = %19, %73, %26, %30
  %93 = phi i8* [ getelementptr inbounds ([6 x i8], [6 x i8]* @.str.2, i64 0, i64 0), %30 ], [ getelementptr inbounds ([6 x i8], [6 x i8]* @.str.2, i64 0, i64 0), %26 ], [ %79, %73 ], [ getelementptr inbounds ([6 x i8], [6 x i8]* @.str.2, i64 0, i64 0), %19 ]
  %94 = call i32 (i8*, ...) @printf(i8* nonnull dereferenceable(1) %93)
  call void @llvm.lifetime.end.p0i8(i64 100, i8* nonnull %6) #5
  call void @llvm.lifetime.end.p0i8(i64 100, i8* nonnull %5) #5
  call void @llvm.lifetime.end.p0i8(i64 8, i8* nonnull %4) #5
  ret i32 0
}

; Function Attrs: argmemonly mustprogress nofree nosync nounwind willreturn
declare void @llvm.lifetime.start.p0i8(i64 immarg, i8* nocapture) #1

; Function Attrs: nofree nounwind
declare noundef i32 @__isoc99_scanf(i8* nocapture noundef readonly, ...) local_unnamed_addr #2

; Function Attrs: argmemonly mustprogress nofree nounwind readonly willreturn
declare i64 @strlen(i8* nocapture) local_unnamed_addr #3

; Function Attrs: argmemonly mustprogress nofree nosync nounwind willreturn
declare void @llvm.lifetime.end.p0i8(i64 immarg, i8* nocapture) #1

; Function Attrs: nofree nounwind
declare noundef i32 @printf(i8* nocapture noundef readonly, ...) local_unnamed_addr #2

; Function Attrs: nofree nosync nounwind readnone willreturn
declare i32 @llvm.vector.reduce.add.v4i32(<4 x i32>) #4


!llvm.module.flags = !{!0, !1, !2, !3}
!llvm.ident = !{!4}

!0 = !{i32 1, !"wchar_size", i32 4}
!1 = !{i32 7, !"PIC Level", i32 2}
!2 = !{i32 7, !"PIE Level", i32 2}
!3 = !{i32 7, !"uwtable", i32 1}
!4 = !{!"clang version 13.0.0"}
!5 = !{!6, !6, i64 0}
!6 = !{!"omnipotent char", !7, i64 0}
!7 = !{!"Simple C/C++ TBAA"}
!8 = distinct !{!8, !9}
!9 = !{!"llvm.loop.mustprogress"}
!10 = distinct !{!10, !9, !11}
!11 = !{!"llvm.loop.isvectorized", i32 1}
!12 = !{!13, !13, i64 0}
!13 = !{!"double", !6, i64 0}
!14 = distinct !{!14, !9, !15, !11}
!15 = !{!"llvm.loop.unroll.runtime.disable"}
